target datalayout = "e-m:e-p270:32:32-p271:32:32-p272:64:64-i64:64-i128:128-f80:128-n8:16:32:64-S128"
target triple = "x86_64-pc-linux-gnu"

%struct._value_string_ext = type { ptr, i32, i32, ptr, ptr }
%struct._dcerpc_info = type { ptr, i32, i64, i8, i8, i8, i32, i32, i32, i32, i32, i32, i32, i32, ptr, ptr, ptr, ptr, %struct.anon }
%struct.anon = type { i8, ptr, ptr, ptr, i8 }
%struct.nstime_t = type { i64, i32 }
%struct._packet_info = type { ptr, ptr, i32, i32, %struct.nstime_t, %struct.nstime_t, %struct.nstime_t, i8, ptr, ptr, ptr, ptr, %struct._address, %struct._address, %struct._address, %struct._address, %struct._address, %struct._address, i32, ptr, i8, [3 x i8], %struct.anon.0, i32, i32, i32, i32, ptr, i8, ptr, ptr, i16, i16, i32, i32, i16, i32, i32, ptr, ptr, ptr, i8, i8, i16, i16, i16, i32, i16, i16, ptr, ptr, ptr, ptr, ptr, i32, i32 }
%struct._address = type { i32, i32, ptr, ptr }
%struct.anon.0 = type { i8, [3 x i8] }

@hf_srvsvc_srvsvc_NetShareAdd_parm_error = internal global i32 0, align 4
@hf_srvsvc_werror = internal global i32 0, align 4
@WERR_errors_ext = external global %struct._value_string_ext, align 8
@.str.1225 = private unnamed_addr constant [12 x i8] c"NetShareAdd\00", align 1
@.str.1269 = private unnamed_addr constant [12 x i8] c", Error: %s\00", align 1
@.str.1270 = private unnamed_addr constant [25 x i8] c"Unknown DOS error 0x%08x\00", align 1
@.str.1281 = private unnamed_addr constant [31 x i8] c"Pointer to Parm Error (uint32)\00", align 1

; Function Attrs: null_pointer_is_valid sspstrong uwtable
define internal i32 @srvsvc_dissect_element_NetShareAdd_parm_error(ptr noundef %0, i32 noundef %1, ptr noundef %2, ptr noundef %3, ptr noundef %4, ptr noundef %5) #0 {
  %7 = alloca ptr, align 8
  %8 = alloca i32, align 4
  %9 = alloca ptr, align 8
  %10 = alloca ptr, align 8
  %11 = alloca ptr, align 8
  %12 = alloca ptr, align 8
  store ptr %0, ptr %7, align 8
  store i32 %1, ptr %8, align 4
  store ptr %2, ptr %9, align 8
  store ptr %3, ptr %10, align 8
  store ptr %4, ptr %11, align 8
  store ptr %5, ptr %12, align 8
  %13 = load ptr, ptr %7, align 8
  %14 = load i32, ptr %8, align 4
  %15 = load ptr, ptr %9, align 8
  %16 = load ptr, ptr %10, align 8
  %17 = load ptr, ptr %11, align 8
  %18 = load ptr, ptr %12, align 8
  %19 = load i32, ptr @hf_srvsvc_srvsvc_NetShareAdd_parm_error, align 4
  %20 = call i32 @dissect_ndr_toplevel_pointer(ptr noundef %13, i32 noundef %14, ptr noundef %15, ptr noundef %16, ptr noundef %17, ptr noundef %18, ptr noundef @srvsvc_dissect_element_NetShareAdd_parm_error_, i32 noundef 2, ptr noundef @.str.1281, i32 noundef %19)
  store i32 %20, ptr %8, align 4
  %21 = load i32, ptr %8, align 4
  ret i32 %21
}

; Function Attrs: null_pointer_is_valid sspstrong uwtable
define internal i32 @srvsvc_dissect_NetShareAdd_response(ptr noundef %0, i32 noundef %1, ptr noundef %2, ptr noundef %3, ptr noundef %4, ptr noundef %5) #0 {
  %7 = alloca ptr, align 8
  %8 = alloca i32, align 4
  %9 = alloca ptr, align 8
  %10 = alloca ptr, align 8
  %11 = alloca ptr, align 8
  %12 = alloca ptr, align 8
  %13 = alloca i32, align 4
  store ptr %0, ptr %7, align 8
  store i32 %1, ptr %8, align 4
  store ptr %2, ptr %9, align 8
  store ptr %3, ptr %10, align 8
  store ptr %4, ptr %11, align 8
  store ptr %5, ptr %12, align 8
  call void @llvm.lifetime.start.p0(i64 4, ptr %13) #4
  %14 = load ptr, ptr %11, align 8
  %15 = getelementptr inbounds nuw %struct._dcerpc_info, ptr %14, i32 0, i32 15
  store ptr @.str.1225, ptr %15, align 8
  %16 = load ptr, ptr %7, align 8
  %17 = load i32, ptr %8, align 4
  %18 = load ptr, ptr %9, align 8
  %19 = load ptr, ptr %10, align 8
  %20 = load ptr, ptr %11, align 8
  %21 = load ptr, ptr %12, align 8
  %22 = call i32 @srvsvc_dissect_element_NetShareAdd_parm_error(ptr noundef %16, i32 noundef %17, ptr noundef %18, ptr noundef %19, ptr noundef %20, ptr noundef %21)
  store i32 %22, ptr %8, align 4
  %23 = load ptr, ptr %9, align 8
  %24 = load ptr, ptr %7, align 8
  %25 = load i32, ptr %8, align 4
  %26 = load ptr, ptr %11, align 8
  %27 = load ptr, ptr %12, align 8
  %28 = call i32 @dissect_deferred_pointers(ptr noundef %23, ptr noundef %24, i32 noundef %25, ptr noundef %26, ptr noundef %27)
  store i32 %28, ptr %8, align 4
  %29 = load ptr, ptr %7, align 8
  %30 = load i32, ptr %8, align 4
  %31 = load ptr, ptr %9, align 8
  %32 = load ptr, ptr %10, align 8
  %33 = load ptr, ptr %11, align 8
  %34 = load ptr, ptr %12, align 8
  %35 = load i32, ptr @hf_srvsvc_werror, align 4
  %36 = call i32 @dissect_ndr_uint32(ptr noundef %29, i32 noundef %30, ptr noundef %31, ptr noundef %32, ptr noundef %33, ptr noundef %34, i32 noundef %35, ptr noundef %13)
  store i32 %36, ptr %8, align 4
  %37 = load i32, ptr %13, align 4
  %38 = icmp ne i32 %37, 0
  br i1 %38, label %39, label %45

39:                                               ; preds = %6
  %40 = load ptr, ptr %9, align 8
  %41 = getelementptr inbounds nuw %struct._packet_info, ptr %40, i32 0, i32 1
  %42 = load ptr, ptr %41, align 8
  %43 = load i32, ptr %13, align 4
  %44 = call ptr @val_to_str_ext(i32 noundef %43, ptr noundef @WERR_errors_ext, ptr noundef @.str.1270)
  call void (ptr, i32, ptr, ...) @col_append_fstr(ptr noundef %42, i32 noundef 25, ptr noundef @.str.1269, ptr noundef %44)
  br label %45

45:                                               ; preds = %39, %6
  %46 = load i32, ptr %8, align 4
  call void @llvm.lifetime.end.p0(i64 4, ptr %13) #4
  ret i32 %46
}